New Terminal Output:
__27__
root@8d9cb8be-24f7-4b8b-9eb0-035afc9a85df:/app#
  runProgram(startAddress) {
    this.pc = startAddress >>> 0; // Force 32-bit unsigned
    let instructionCount = 0;


      let counter = 0;
        try {
      while (1) {
          const instruction = this.memory[this.pc] || 0;

          const oldPc = this.pc;

          this.pc = (this.pc + 4) >>> 0; // Increment PC before execution

          const result = this.runInstruction(instruction);
          instructionCount++;

          if (this.pc != ((oldPc + 4) >>> 0)) {
              const newPc = this.pc;
              this.pc = ((oldPc + 8) >>> 0)
              const delaySlotInstruction = this.memory[oldPc + 4] || 0;
              this.runInstruction(delaySlotInstruction);
              this.pc = newPc;
              instructionCount++;
          }


        // Check for program termination conditions
        if (result !== 0 || this.pc === 0 || this.pc === oldPc) {
          console.log(`Program terminated at PC=0x${this.pc.toString(16)}`);
          break;
        }
      }

      console.log(`Executed ${instructionCount} instructions`);
      return this.registers[2]; // Return value in $v0
    } catch (error) {
      console.error(`Execution error at PC=0x${this.pc.toString(16)}: ${error.message}`);
      return -1;
    }
  }
}



// ELF Constants
const ELF_CLASS_32 = 1;
root@8d9cb8be-24f7-4b8b-9eb0-035afc9a85df:/app#
root@8d9cb8be-24f7-4b8b-9eb0-035afc9a85df:/app#
0040b024 <I_Error>:
  40b024:       3c020047        lui     v0,0x47
  40b028:       27bdfdc8        addiu   sp,sp,-568
  40b02c:       8c43b250        lw      v1,-19888(v0)
root@8d9cb8be-24f7-4b8b-9eb0-035afc9a85df:/app#
root@8d9cb8be-24f7-4b8b-9eb0-035afc9a85df:/app#
0040b024 <I_Error>:
  40b024:       3c020047        lui     v0,0x47
  40b028:       27bdfdc8        addiu   sp,sp,-568
  40b02c:       8c43b250        lw      v1,-19888(v0)
  40b030:       afb10224        sw      s1,548(sp)
  40b034:       3c110047        lui     s1,0x47
  40b038:       afb00220        sw      s0,544(sp)
  40b03c:       00808025        move    s0,a0
  40b040:       afbf0234        sw      ra,564(sp)
  40b044:       afb40230        sw      s4,560(sp)
  40b048:       afb3022c        sw      s3,556(sp)
  40b04c:       afb20228        sw      s2,552(sp)
  40b050:       afa5023c        sw      a1,572(sp)
  40b054:       afa60240        sw      a2,576(sp)
  40b058:       10600056        beqz    v1,40b1b4 <I_Error+0x190>
  40b05c:       afa70244        sw      a3,580(sp)
  40b060:       3c050044        lui     a1,0x44
  40b064:       2624b094        addiu   a0,s1,-20332
  40b068:       0c10c802        jal     432008 <fprintf>
  40b06c:       24a58374        addiu   a1,a1,-31884
  40b070:       27a2023c        addiu   v0,sp,572
  40b074:       2624b094        addiu   a0,s1,-20332
  40b078:       00403025        move    a2,v0
  40b07c:       afa20218        sw      v0,536(sp)
  40b080:       0c10c7e6        jal     431f98 <vfprintf>
  40b084:       02002825        move    a1,s0
  40b088:       3c050044        lui     a1,0x44
  40b08c:       2624b094        addiu   a0,s1,-20332
  40b090:       0c10c802        jal     432008 <fprintf>
  40b094:       24a583a4        addiu   a1,a1,-31836
  40b098:       0c10c5b0        jal     4316c0 <fflush>
  40b09c:       2624b094        addiu   a0,s1,-20332
  40b0a0:       27a2023c        addiu   v0,sp,572
  40b0a4:       24060200        li      a2,512
  40b0a8:       00002825        move    a1,zero
  40b0ac:       afa20218        sw      v0,536(sp)
  40b0b0:       0c10c410        jal     431040 <memset>
  40b0b4:       27a40018        addiu   a0,sp,24
  40b0b8:       24050200        li      a1,512
  40b0bc:       8fa70218        lw      a3,536(sp)
  40b0c0:       27a40018        addiu   a0,sp,24
  40b0c4:       0c103d47        jal     40f51c <M_vsnprintf>
  40b0c8:       02003025        move    a2,s0
  40b0cc:       3c020047        lui     v0,0x47
  40b0d0:       8c50b254        lw      s0,-19884(v0)
  40b0d4:       1600003a        bnez    s0,40b1c0 <I_Error+0x19c>
  40b0d8:       3c040044        lui     a0,0x44
  40b0dc:       0c102d8a        jal     40b628 <M_ParmExists>
  40b0e0:       248483a8        addiu   a0,a0,-31832
  40b0e4:       14400031        bnez    v0,40b1ac <I_Error+0x188>
  40b0e8:       00000000        nop
  40b0ec:       3c040044        lui     a0,0x44
  40b0f0:       0c10c9f3        jal     4327cc <system>
  40b0f4:       248483b0        addiu   a0,a0,-31824
  40b0f8:       1440002c        bnez    v0,40b1ac <I_Error+0x188>
  40b0fc:       00000000        nop
  40b100:       27a40018        addiu   a0,sp,24
  40b104:       0c10c37e        jal     430df8 <strlen>
  40b108:       3c130044        lui     s3,0x44
  40b10c:       27b00018        addiu   s0,sp,24
sed: couldn't flush stdout: Broken pipe
root@8d9cb8be-24f7-4b8b-9eb0-035afc9a85df:/app#
root@8d9cb8be-24f7-4b8b-9eb0-035afc9a85df:/app#
