New Terminal Output:
40__
root@2614ae93-5865-465a-ba2e-4e86fa57cefd:/app# python3 << 'PYEOF'
> import struct
> regs = ['zero','at','v0','v1','a0','a1','a2','a3',
>         't0','t1','t2','t3','t4','t5','t6','t7',
>         's0','s1','s2','s3','s4','s5','s6','s7',
>         't8','t9','k0','k1','gp','sp','fp','ra']
> def decode_mips(instr):
>     op = (instr >> 26) & 0x3F
>     rs = (instr >> 21) & 0x1F
>     rt = (instr >> 16) & 0x1F
>     rd = (instr >> 11) & 0x1F
>     shamt = (instr >> 6) & 0x1F
>     funct = instr & 0x3F
>     imm = instr & 0xFFFF
>     simm = imm if imm < 0x8000 else imm - 0x10000
>     target = instr & 0x3FFFFFF
>     if op == 0:
>         if funct == 0x0c: return 'syscall'
>         if funct == 0x25: return f'or {regs[rd]}, {regs[rs]}, {regs[rt]}'
>         if funct == 0x08: return f'jr {regs[rs]}'
>         if funct == 0x09: return f'jalr {regs[rd]}, {regs[rs]}'
>         if funct == 0x00 and instr == 0: return 'nop'
>         if funct == 0x00: return f'sll {regs[rd]}, {regs[rt]}, {shamt}'
>         if funct == 0x21: return f'addu {regs[rd]}, {regs[rs]}, {regs[rt]}'
>         if funct == 0x23: return f'subu {regs[rd]}, {regs[rs]}, {regs[rt]}'
>         return f'R fn=0x{funct:02x} {regs[rs]} {regs[rt]} {regs[rd]}'
>     elif op == 0x09: return f'addiu {regs[rt]}, {regs[rs]}, {simm}'
>     elif op == 0x0f: return f'lui {regs[rt]}, 0x{imm:04x}'
>     elif op == 0x23: return f'lw {regs[rt]}, {simm}({regs[rs]})'
>     elif op == 0x2b: return f'sw {regs[rt]}, {simm}({regs[rs]})'
>     elif op == 0x03: return f'jal 0x{(target<<2):08x}'
>     elif op == 0x02: return f'j 0x{(target<<2):08x}'
>     elif op == 0x04: return f'beq {regs[rs]}, {regs[rt]}, {simm}'
>     elif op == 0x05: return f'bne {regs[rs]}, {regs[rt]}, {simm}'
>     elif op == 0x01:
>         if rt == 0: return f'bltz {regs[rs]}, {simm}'
>         if rt == 1: return f'bgez {regs[rs]}, {simm}'
>     elif op == 0x0d: return f'ori {regs[rt]}, {regs[rs]}, 0x{imm:04x}'
>     elif op == 0x0c: return f'andi {regs[rt]}, {regs[rs]}, 0x{imm:04x}'
>     elif op == 0x20: return f'lb {regs[rt]}, {simm}({regs[rs]})'
>     elif op == 0x24: return f'lbu {regs[rt]}, {simm}({regs[rs]})'
>     elif op == 0x28: return f'sb {regs[rt]}, {simm}({regs[rs]})'
>     return f'op=0x{op:02x} {instr:08x}'
>
> with open('doomgeneric_mips', 'rb') as f:
>     data = f.read()
>
> # Let's look at the fopen more carefully from the beginning
> print('=== fopen at 0x0043a624 ===')
> for i in range(0x3a624, 0x3a780, 4):
>     instr = struct.unpack('<I', data[i:i+4])[0]
>     va = 0x400000 + i
>     d = decode_mips(instr)
>     print(f'  0x{va:08x}: {instr:08x}  {d}')
> PYEOF
=== fopen at 0x0043a624 ===
  0x0043a624: 27bdffe8  addiu sp, sp, -24
  0x0043a628: afbf0014  sw ra, 20(sp)
  0x0043a62c: afb00010  sw s0, 16(sp)
  0x0043a630: 90a20000  lbu v0, 0(a1)
  0x0043a634: 10400020  beq v0, zero, 32
  0x0043a638: 00000000  nop
  0x0043a63c: 00801825  or v1, a0, zero
  0x0043a640: 24a60001  addiu a2, a1, 1
  0x0043a644: 24040072  addiu a0, zero, 114
  0x0043a648: 00403825  or a3, v0, zero
  0x0043a64c: 30e100ff  andi at, a3, 0x00ff
  0x0043a650: 1024001e  beq at, a0, 30
  0x0043a654: 00000000  nop
  0x0043a658: 24c10001  addiu at, a2, 1
  0x0043a65c: 90c70000  lbu a3, 0(a2)
  0x0043a660: 14e0fffa  bne a3, zero, -6
  0x0043a664: 00203025  or a2, at, zero
  0x0043a668: 24a60001  addiu a2, a1, 1
  0x0043a66c: 24040077  addiu a0, zero, 119
  0x0043a670: 00403825  or a3, v0, zero
  0x0043a674: 30e100ff  andi at, a3, 0x00ff
  0x0043a678: 1024001f  beq at, a0, 31
  0x0043a67c: 00000000  nop
  0x0043a680: 24c10001  addiu at, a2, 1
  0x0043a684: 90c70000  lbu a3, 0(a2)
  0x0043a688: 14e0fffa  bne a3, zero, -6
  0x0043a68c: 00203025  or a2, at, zero
  0x0043a690: 24a60001  addiu a2, a1, 1
  0x0043a694: 24040061  addiu a0, zero, 97
  0x0043a698: 00403825  or a3, v0, zero
  0x0043a69c: 30e100ff  andi at, a3, 0x00ff
  0x0043a6a0: 10240020  beq at, a0, 32
  0x0043a6a4: 00000000  nop
  0x0043a6a8: 24c10001  addiu at, a2, 1
  0x0043a6ac: 90c70000  lbu a3, 0(a2)
  0x0043a6b0: 14e0fffa  bne a3, zero, -6
  0x0043a6b4: 00203025  or a2, at, zero
  0x0043a6b8: 3c01004b  lui at, 0x004b
  0x0043a6bc: 24020016  addiu v0, zero, 22
  0x0043a6c0: 240a0000  addiu t2, zero, 0
  0x0043a6c4: 0810e9fd  j 0x0043a7f4
  0x0043a6c8: ac220a80  sw v0, 2688(at)
  0x0043a6cc: 2404002b  addiu a0, zero, 43
  0x0043a6d0: 304100ff  andi at, v0, 0x00ff
  0x0043a6d4: 10240005  beq at, a0, 5
  0x0043a6d8: 00000000  nop
  0x0043a6dc: 90a20001  lbu v0, 1(a1)
  0x0043a6e0: 1440fffb  bne v0, zero, -5
  0x0043a6e4: 24a50001  addiu a1, a1, 1
  0x0043a6e8: 24050000  addiu a1, zero, 0
  0x0043a6ec: 0005082b  R fn=0x2b zero a1 at
  0x0043a6f0: 0810e9d3  j 0x0043a74c
  0x0043a6f4: 00015840  sll t3, at, 1
  0x0043a6f8: 2404002b  addiu a0, zero, 43
  0x0043a6fc: 304100ff  andi at, v0, 0x00ff
  0x0043a700: 10240005  beq at, a0, 5
  0x0043a704: 00000000  nop
  0x0043a708: 90a20001  lbu v0, 1(a1)
  0x0043a70c: 1440fffb  bne v0, zero, -5
  0x0043a710: 24a50001  addiu a1, a1, 1
  0x0043a714: 24050000  addiu a1, zero, 0
  0x0043a718: 0005082b  R fn=0x2b zero a1 at
  0x0043a71c: 0810e9d3  j 0x0043a74c
  0x0043a720: 242b0241  addiu t3, at, 577
  0x0043a724: 2404002b  addiu a0, zero, 43
  0x0043a728: 304100ff  andi at, v0, 0x00ff
  0x0043a72c: 10240005  beq at, a0, 5
  0x0043a730: 00000000  nop
  0x0043a734: 90a20001  lbu v0, 1(a1)
  0x0043a738: 1440fffb  bne v0, zero, -5
  0x0043a73c: 24a50001  addiu a1, a1, 1
  0x0043a740: 24050000  addiu a1, zero, 0
  0x0043a744: 0005082b  R fn=0x2b zero a1 at
  0x0043a748: 242b0441  addiu t3, at, 1089
  0x0043a74c: 240c0002  addiu t4, zero, 2
  0x0043a750: 240d01a4  addiu t5, zero, 420
  0x0043a754: 240a0000  addiu t2, zero, 0
  0x0043a758: 01801025  or v0, t4, zero
  0x0043a75c: 00602025  or a0, v1, zero
  0x0043a760: 01602825  or a1, t3, zero
  0x0043a764: 01a03025  or a2, t5, zero
  0x0043a768: 01403825  or a3, t2, zero
  0x0043a76c: 01404025  or t0, t2, zero
  0x0043a770: 01404825  or t1, t2, zero
  0x0043a774: 0000000c  syscall
  0x0043a778: 00408025  or s0, v0, zero
  0x0043a77c: 0600000b  bltz s0, 11
root@2614ae93-5865-465a-ba2e-4e86fa57cefd:/app#
