New Terminal Output:

root@modal:/app# mipsel-linux-gnu-objdump -d --start-address=0x400110 --stop-address=0x400180 doomgeneric_mips

doomgeneric_mips:     file format elf32-tradlittlemips


Disassembly of section .text:

00400110 <__start>:
  400110:       27bdffe8        addiu   sp,sp,-24
  400114:       afbf0014        sw      ra,20(sp)
  400118:       24040000        li      a0,0
  40011c:       0c10e558        jal     439560 <doomgeneric_Create>
  400120:       24050000        li      a1,0
  400124:       0c100fbc        jal     403ef0 <doomgeneric_Tick>
  400128:       00000000        nop
  40012c:       08100049        j       400124 <__start+0x14>
  400130:       00000000        nop
        ...

00400140 <I_InitTimidityConfig>:
  400140:       03e00008        jr      ra
  400144:       00000000        nop
        ...

00400150 <AM_getIslope>:
  400150:       27bdffe0        addiu   sp,sp,-32
  400154:       afbf001c        sw      ra,28(sp)
  400158:       afb20018        sw      s2,24(sp)
  40015c:       afb10014        sw      s1,20(sp)
  400160:       afb00010        sw      s0,16(sp)
  400164:       8c810000        lw      at,0(a0)
  400168:       8c820008        lw      v0,8(a0)
  40016c:       00418823        subu    s1,v0,at
  400170:       8c81000c        lw      at,12(a0)
  400174:       8c820004        lw      v0,4(a0)
  400178:       00419023        subu    s2,v0,at
  40017c:       12400006        beqz    s2,400198 <AM_getIslope+0x48>
root@modal:/app# mipsel-linux-gnu-objdump -d --start-address=0x439888 --stop-address=0x4398b0 doomgeneric_mips

doomgeneric_mips:     file format elf32-tradlittlemips


Disassembly of section .text:

00439888 <main>:
  439888:       27bdffe8        addiu   sp,sp,-24
  43988c:       afbf0014        sw      ra,20(sp)
  439890:       0c10e558        jal     439560 <doomgeneric_Create>
  439894:       00000000        nop
  439898:       0c100fbc        jal     403ef0 <doomgeneric_Tick>
  43989c:       00000000        nop
  4398a0:       0810e626        j       439898 <main+0x10>
  4398a4:       00000000        nop
        ...
root@modal:/app# mipsel-linux-gnu-objdump -d --start-address=0x43d974 --stop-address=0x43da1c doomgeneric_mips

doomgeneric_mips:     file format elf32-tradlittlemips


Disassembly of section .text:

0043d974 <syscall6>:
  43d974:       00e01825        move    v1,a3
  43d978:       00c05025        move    t2,a2
  43d97c:       00a05825        move    t3,a1
  43d980:       24010001        li      at,1
  43d984:       14810013        bne     a0,at,43d9d4 <syscall6+0x60>
  43d988:       00806025        move    t4,a0
  43d98c:       2d610002        sltiu   at,t3,2
  43d990:       10200010        beqz    at,43d9d4 <syscall6+0x60>
  43d994:       00000000        nop
  43d998:       240c0001        li      t4,1
  43d99c:       240d0000        li      t5,0
  43d9a0:       01801025        move    v0,t4
  43d9a4:       01602025        move    a0,t3
  43d9a8:       01402825        move    a1,t2
  43d9ac:       00603025        move    a2,v1
  43d9b0:       01a03825        move    a3,t5
  43d9b4:       01a04025        move    t0,t5
  43d9b8:       01a04825        move    t1,t5
  43d9bc:       0000000c        syscall
  43d9c0:       00401825        move    v1,v0
  43d9c4:       04610013        bgez    v1,43da14 <syscall6+0xa0>
  43d9c8:       00000000        nop
  43d9cc:       0810f681        j       43da04 <syscall6+0x90>
  43d9d0:       00000000        nop
  43d9d4:       240d0000        li      t5,0
  43d9d8:       01801025        move    v0,t4
  43d9dc:       01602025        move    a0,t3
  43d9e0:       01402825        move    a1,t2
  43d9e4:       00603025        move    a2,v1
  43d9e8:       01a03825        move    a3,t5
  43d9ec:       01a04025        move    t0,t5
  43d9f0:       01a04825        move    t1,t5
  43d9f4:       0000000c        syscall
  43d9f8:       00401825        move    v1,v0
  43d9fc:       04610005        bgez    v1,43da14 <syscall6+0xa0>
  43da00:       00000000        nop
  43da04:       00030823        negu    at,v1
  43da08:       3c02004b        lui     v0,0x4b
  43da0c:       2403ffff        li      v1,-1
  43da10:       ac410a80        sw      at,2688(v0)
  43da14:       03e00008        jr      ra
  43da18:       00601025        move    v0,v1
root@modal:/app#
